#include <math.h>
#include <stdio.h>
#include <stdlib.h>
#include <string.h>

main()
{
int i,j,k,m,n;
int p=0;
scanf("%d %d",&m,&n);
int a[1000];
int b[1000][1000];
for(i=1;i<=m;i++)
scanf("%d",&a[i]);
for(i=1;i<=m;i++)
for(j=i+1;j<=m;j++)
b[i][j]=a[i]+a[j];
for(i=1;i<=m;i++)
{if(p==1)
break;
for(j=1;j<=m;j++)
{if(b[i][j]==n)
{p=1;break;}
}
}
if(p==1)
printf("yes");
else
printf("no");
}